; Function Attrs: mustprogress null_pointer_is_valid sspstrong uwtable
define internal void @"_ZN9QtPrivate18QFunctorSlotObjectIZN19WiresharkMainWindow22connectFileMenuActionsEvE3$_4Li0ENS_4ListIJEEEvE4implEiPNS_15QSlotObjectBaseEP7QObjectPPvPb"(i32 noundef %0, ptr noundef %1, ptr readnone captures(none) %2, ptr readnone captures(none) %3, ptr readnone captures(none) %4) #0 align 2 {
  switch i32 %0, label %18 [
    i32 0, label %6
    i32 1, label %9
  ]

6:                                                ; preds = %5
  %7 = icmp eq ptr %1, null
  br i1 %7, label %18, label %8

8:                                                ; preds = %6
  tail call void @_ZdlPvm(ptr noundef nonnull %1, i64 noundef 24) #26
  br label %18

9:                                                ; preds = %5
  %10 = getelementptr inbounds nuw i8, ptr %1, i64 16
  %.val = load ptr, ptr %10, align 8
  %11 = getelementptr inbounds nuw i8, ptr %.val, i64 40
  %12 = tail call noundef zeroext i1 @_ZNK11CaptureFile7isValidEv(ptr noundef nonnull align 8 dereferenceable_or_null(48) %11)
  br i1 %12, label %13, label %"_ZN9QtPrivate7FunctorIZN19WiresharkMainWindow22connectFileMenuActionsEvE3$_4Li0EE4callINS_4ListIJEEEvEEvRS2_PvPS8_.exit"

13:                                               ; preds = %9
  %14 = getelementptr inbounds nuw i8, ptr %.val, i64 56
  %15 = load ptr, ptr %14, align 8
  br label %"_ZN9QtPrivate7FunctorIZN19WiresharkMainWindow22connectFileMenuActionsEvE3$_4Li0EE4callINS_4ListIJEEEvEEvRS2_PvPS8_.exit"

"_ZN9QtPrivate7FunctorIZN19WiresharkMainWindow22connectFileMenuActionsEvE3$_4Li0EE4callINS_4ListIJEEEvEEvRS2_PvPS8_.exit": ; preds = %9, %13
  %16 = phi ptr [ %15, %13 ], [ null, %9 ]
  %17 = tail call noundef zeroext i1 @_ZN19WiresharkMainWindow15saveCaptureFileEP13_capture_fileb(ptr noundef align 8 dereferenceable_or_null(560) %.val, ptr noundef %16, i1 noundef zeroext false)
  br label %18

18:                                               ; preds = %6, %8, %"_ZN9QtPrivate7FunctorIZN19WiresharkMainWindow22connectFileMenuActionsEvE3$_4Li0EE4callINS_4ListIJEEEvEEvRS2_PvPS8_.exit", %5
  ret void
}